target datalayout = "e-m:e-p270:32:32-p271:32:32-p272:64:64-i64:64-i128:128-f80:128-n8:16:32:64-S128"
target triple = "x86_64-pc-linux-gnu"

%struct.JsonManifestParseState = type { ptr, i32, i32, ptr, ptr, ptr, ptr, i32, ptr, i32, ptr, ptr, ptr, i8, ptr, ptr, ptr }
%struct.JsonManifestParseContext = type { ptr, ptr, ptr, ptr, ptr, ptr }

@.str = private unnamed_addr constant [14 x i8] c"out of memory\00", align 1
@.str.1 = private unnamed_addr constant [42 x i8] c"could not initialize checksum of manifest\00", align 1
@.str.3 = private unnamed_addr constant [38 x i8] c"could not update checksum of manifest\00", align 1
@.str.46 = private unnamed_addr constant [26 x i8] c"expected at least 2 lines\00", align 1
@.str.47 = private unnamed_addr constant [33 x i8] c"last line not newline-terminated\00", align 1
@.str.48 = private unnamed_addr constant [40 x i8] c"could not finalize checksum of manifest\00", align 1
@.str.49 = private unnamed_addr constant [25 x i8] c"manifest has no checksum\00", align 1
@.str.50 = private unnamed_addr constant [32 x i8] c"invalid manifest checksum: \22%s\22\00", align 1
@.str.51 = private unnamed_addr constant [27 x i8] c"manifest checksum mismatch\00", align 1
@.str.52 = private unnamed_addr constant [36 x i8] c"could not parse backup manifest: %s\00", align 1

; Function Attrs: nounwind uwtable
define internal i32 @hexdecode_char(i8 noundef signext %0) #0 {
  %2 = alloca i32, align 4
  %3 = alloca i8, align 1
  store i8 %0, ptr %3, align 1
  %4 = load i8, ptr %3, align 1
  %5 = sext i8 %4 to i32
  %6 = icmp sge i32 %5, 48
  br i1 %6, label %7, label %15

7:                                                ; preds = %1
  %8 = load i8, ptr %3, align 1
  %9 = sext i8 %8 to i32
  %10 = icmp sle i32 %9, 57
  br i1 %10, label %11, label %15

11:                                               ; preds = %7
  %12 = load i8, ptr %3, align 1
  %13 = sext i8 %12 to i32
  %14 = sub i32 %13, 48
  store i32 %14, ptr %2, align 4
  br label %42

15:                                               ; preds = %7, %1
  %16 = load i8, ptr %3, align 1
  %17 = sext i8 %16 to i32
  %18 = icmp sge i32 %17, 97
  br i1 %18, label %19, label %28

19:                                               ; preds = %15
  %20 = load i8, ptr %3, align 1
  %21 = sext i8 %20 to i32
  %22 = icmp sle i32 %21, 102
  br i1 %22, label %23, label %28

23:                                               ; preds = %19
  %24 = load i8, ptr %3, align 1
  %25 = sext i8 %24 to i32
  %26 = sub i32 %25, 97
  %27 = add i32 %26, 10
  store i32 %27, ptr %2, align 4
  br label %42

28:                                               ; preds = %19, %15
  %29 = load i8, ptr %3, align 1
  %30 = sext i8 %29 to i32
  %31 = icmp sge i32 %30, 65
  br i1 %31, label %32, label %41

32:                                               ; preds = %28
  %33 = load i8, ptr %3, align 1
  %34 = sext i8 %33 to i32
  %35 = icmp sle i32 %34, 70
  br i1 %35, label %36, label %41

36:                                               ; preds = %32
  %37 = load i8, ptr %3, align 1
  %38 = sext i8 %37 to i32
  %39 = sub i32 %38, 65
  %40 = add i32 %39, 10
  store i32 %40, ptr %2, align 4
  br label %42

41:                                               ; preds = %32, %28
  store i32 -1, ptr %2, align 4
  br label %42

42:                                               ; preds = %41, %36, %23, %11
  %43 = load i32, ptr %2, align 4
  ret i32 %43
}

; Function Attrs: nounwind uwtable
define internal zeroext i1 @hexdecode_string(ptr noundef %0, ptr noundef %1, i32 noundef %2) #0 {
  %4 = alloca i1, align 1
  %5 = alloca ptr, align 8
  %6 = alloca ptr, align 8
  %7 = alloca i32, align 4
  %8 = alloca i32, align 4
  %9 = alloca i32, align 4
  %10 = alloca i32, align 4
  %11 = alloca i32, align 4
  store ptr %0, ptr %5, align 8
  store ptr %1, ptr %6, align 8
  store i32 %2, ptr %7, align 4
  call void @llvm.lifetime.start.p0(i64 4, ptr %8) #5
  store i32 0, ptr %8, align 4
  br label %12

12:                                               ; preds = %51, %3
  %13 = load i32, ptr %8, align 4
  %14 = load i32, ptr %7, align 4
  %15 = icmp slt i32 %13, %14
  br i1 %15, label %16, label %54

16:                                               ; preds = %12
  call void @llvm.lifetime.start.p0(i64 4, ptr %9) #5
  %17 = load ptr, ptr %6, align 8
  %18 = load i32, ptr %8, align 4
  %19 = mul i32 %18, 2
  %20 = sext i32 %19 to i64
  %21 = getelementptr inbounds i8, ptr %17, i64 %20
  %22 = load i8, ptr %21, align 1
  %23 = call i32 @hexdecode_char(i8 noundef signext %22)
  store i32 %23, ptr %9, align 4
  call void @llvm.lifetime.start.p0(i64 4, ptr %10) #5
  %24 = load ptr, ptr %6, align 8
  %25 = load i32, ptr %8, align 4
  %26 = mul i32 %25, 2
  %27 = add i32 %26, 1
  %28 = sext i32 %27 to i64
  %29 = getelementptr inbounds i8, ptr %24, i64 %28
  %30 = load i8, ptr %29, align 1
  %31 = call i32 @hexdecode_char(i8 noundef signext %30)
  store i32 %31, ptr %10, align 4
  %32 = load i32, ptr %9, align 4
  %33 = icmp slt i32 %32, 0
  br i1 %33, label %37, label %34

34:                                               ; preds = %16
  %35 = load i32, ptr %10, align 4
  %36 = icmp slt i32 %35, 0
  br i1 %36, label %37, label %38

37:                                               ; preds = %34, %16
  store i1 false, ptr %4, align 1
  store i32 1, ptr %11, align 4
  br label %48

38:                                               ; preds = %34
  %39 = load i32, ptr %9, align 4
  %40 = mul i32 %39, 16
  %41 = load i32, ptr %10, align 4
  %42 = add i32 %40, %41
  %43 = trunc i32 %42 to i8
  %44 = load ptr, ptr %5, align 8
  %45 = load i32, ptr %8, align 4
  %46 = sext i32 %45 to i64
  %47 = getelementptr inbounds i8, ptr %44, i64 %46
  store i8 %43, ptr %47, align 1
  store i32 0, ptr %11, align 4
  br label %48

48:                                               ; preds = %38, %37
  call void @llvm.lifetime.end.p0(i64 4, ptr %10) #5
  call void @llvm.lifetime.end.p0(i64 4, ptr %9) #5
  %49 = load i32, ptr %11, align 4
  switch i32 %49, label %55 [
    i32 0, label %50
  ]

50:                                               ; preds = %48
  br label %51

51:                                               ; preds = %50
  %52 = load i32, ptr %8, align 4
  %53 = add i32 %52, 1
  store i32 %53, ptr %8, align 4
  br label %12, !llvm.loop !8

54:                                               ; preds = %12
  store i1 true, ptr %4, align 1
  store i32 1, ptr %11, align 4
  br label %55

55:                                               ; preds = %54, %48
  call void @llvm.lifetime.end.p0(i64 4, ptr %8) #5
  %56 = load i1, ptr %4, align 1
  ret i1 %56
}

; Function Attrs: nounwind uwtable
define internal void @json_manifest_parse_failure(ptr noundef %0, ptr noundef %1) #0 {
  %3 = alloca ptr, align 8
  %4 = alloca ptr, align 8
  store ptr %0, ptr %3, align 8
  store ptr %1, ptr %4, align 8
  %5 = load ptr, ptr %3, align 8
  %6 = getelementptr inbounds nuw %struct.JsonManifestParseContext, ptr %5, i32 0, i32 5
  %7 = load ptr, ptr %6, align 8
  %8 = load ptr, ptr %3, align 8
  %9 = load ptr, ptr %4, align 8
  call void (ptr, ptr, ...) %7(ptr noundef %8, ptr noundef @.str.52, ptr noundef %9) #6
  unreachable
}

; Function Attrs: nounwind uwtable
define internal void @verify_manifest_checksum(ptr noundef %0, ptr noundef %1, i64 noundef %2, ptr noundef %3) #0 {
  %5 = alloca ptr, align 8
  %6 = alloca ptr, align 8
  %7 = alloca i64, align 8
  %8 = alloca ptr, align 8
  %9 = alloca ptr, align 8
  %10 = alloca i64, align 8
  %11 = alloca i64, align 8
  %12 = alloca i64, align 8
  %13 = alloca i64, align 8
  %14 = alloca ptr, align 8
  %15 = alloca [32 x i8], align 16
  %16 = alloca [32 x i8], align 16
  store ptr %0, ptr %5, align 8
  store ptr %1, ptr %6, align 8
  store i64 %2, ptr %7, align 8
  store ptr %3, ptr %8, align 8
  call void @llvm.lifetime.start.p0(i64 8, ptr %9) #5
  %17 = load ptr, ptr %5, align 8
  %18 = getelementptr inbounds nuw %struct.JsonManifestParseState, ptr %17, i32 0, i32 0
  %19 = load ptr, ptr %18, align 8
  store ptr %19, ptr %9, align 8
  call void @llvm.lifetime.start.p0(i64 8, ptr %10) #5
  call void @llvm.lifetime.start.p0(i64 8, ptr %11) #5
  store i64 0, ptr %11, align 8
  call void @llvm.lifetime.start.p0(i64 8, ptr %12) #5
  store i64 0, ptr %12, align 8
  call void @llvm.lifetime.start.p0(i64 8, ptr %13) #5
  store i64 0, ptr %13, align 8
  call void @llvm.lifetime.start.p0(i64 8, ptr %14) #5
  call void @llvm.lifetime.start.p0(i64 32, ptr %15) #5
  call void @llvm.lifetime.start.p0(i64 32, ptr %16) #5
  store i64 0, ptr %10, align 8
  br label %20

20:                                               ; preds = %37, %4
  %21 = load i64, ptr %10, align 8
  %22 = load i64, ptr %7, align 8
  %23 = icmp ult i64 %21, %22
  br i1 %23, label %24, label %40

24:                                               ; preds = %20
  %25 = load ptr, ptr %6, align 8
  %26 = load i64, ptr %10, align 8
  %27 = getelementptr inbounds nuw i8, ptr %25, i64 %26
  %28 = load i8, ptr %27, align 1
  %29 = sext i8 %28 to i32
  %30 = icmp eq i32 %29, 10
  br i1 %30, label %31, label %36

31:                                               ; preds = %24
  %32 = load i64, ptr %11, align 8
  %33 = add i64 %32, 1
  store i64 %33, ptr %11, align 8
  %34 = load i64, ptr %12, align 8
  store i64 %34, ptr %13, align 8
  %35 = load i64, ptr %10, align 8
  store i64 %35, ptr %12, align 8
  br label %36

36:                                               ; preds = %31, %24
  br label %37

37:                                               ; preds = %36
  %38 = load i64, ptr %10, align 8
  %39 = add i64 %38, 1
  store i64 %39, ptr %10, align 8
  br label %20, !llvm.loop !6

40:                                               ; preds = %20
  %41 = load i64, ptr %11, align 8
  %42 = icmp ult i64 %41, 2
  br i1 %42, label %43, label %47

43:                                               ; preds = %40
  %44 = load ptr, ptr %5, align 8
  %45 = getelementptr inbounds nuw %struct.JsonManifestParseState, ptr %44, i32 0, i32 0
  %46 = load ptr, ptr %45, align 8
  call void @json_manifest_parse_failure(ptr noundef %46, ptr noundef @.str.46)
  br label %47

47:                                               ; preds = %43, %40
  %48 = load i64, ptr %12, align 8
  %49 = load i64, ptr %7, align 8
  %50 = sub i64 %49, 1
  %51 = icmp ne i64 %48, %50
  br i1 %51, label %52, label %56

52:                                               ; preds = %47
  %53 = load ptr, ptr %5, align 8
  %54 = getelementptr inbounds nuw %struct.JsonManifestParseState, ptr %53, i32 0, i32 0
  %55 = load ptr, ptr %54, align 8
  call void @json_manifest_parse_failure(ptr noundef %55, ptr noundef @.str.47)
  br label %56

56:                                               ; preds = %52, %47
  %57 = load ptr, ptr %8, align 8
  %58 = icmp eq ptr %57, null
  br i1 %58, label %59, label %78

59:                                               ; preds = %56
  %60 = call ptr @pg_cryptohash_create(i32 noundef 3)
  store ptr %60, ptr %14, align 8
  %61 = load ptr, ptr %14, align 8
  %62 = icmp eq ptr %61, null
  br i1 %62, label %63, label %68

63:                                               ; preds = %59
  %64 = load ptr, ptr %9, align 8
  %65 = getelementptr inbounds nuw %struct.JsonManifestParseContext, ptr %64, i32 0, i32 5
  %66 = load ptr, ptr %65, align 8
  %67 = load ptr, ptr %9, align 8
  call void (ptr, ptr, ...) %66(ptr noundef %67, ptr noundef @.str) #6
  unreachable

68:                                               ; preds = %59
  %69 = load ptr, ptr %14, align 8
  %70 = call i32 @pg_cryptohash_init(ptr noundef %69)
  %71 = icmp slt i32 %70, 0
  br i1 %71, label %72, label %77

72:                                               ; preds = %68
  %73 = load ptr, ptr %9, align 8
  %74 = getelementptr inbounds nuw %struct.JsonManifestParseContext, ptr %73, i32 0, i32 5
  %75 = load ptr, ptr %74, align 8
  %76 = load ptr, ptr %9, align 8
  call void (ptr, ptr, ...) %75(ptr noundef %76, ptr noundef @.str.1) #6
  unreachable

77:                                               ; preds = %68
  br label %80

78:                                               ; preds = %56
  %79 = load ptr, ptr %8, align 8
  store ptr %79, ptr %14, align 8
  br label %80

80:                                               ; preds = %78, %77
  %81 = load ptr, ptr %14, align 8
  %82 = load ptr, ptr %6, align 8
  %83 = load i64, ptr %13, align 8
  %84 = add i64 %83, 1
  %85 = call i32 @pg_cryptohash_update(ptr noundef %81, ptr noundef %82, i64 noundef %84)
  %86 = icmp slt i32 %85, 0
  br i1 %86, label %87, label %92

87:                                               ; preds = %80
  %88 = load ptr, ptr %9, align 8
  %89 = getelementptr inbounds nuw %struct.JsonManifestParseContext, ptr %88, i32 0, i32 5
  %90 = load ptr, ptr %89, align 8
  %91 = load ptr, ptr %9, align 8
  call void (ptr, ptr, ...) %90(ptr noundef %91, ptr noundef @.str.3) #6
  unreachable

92:                                               ; preds = %80
  %93 = load ptr, ptr %14, align 8
  %94 = getelementptr inbounds [32 x i8], ptr %15, i64 0, i64 0
  %95 = call i32 @pg_cryptohash_final(ptr noundef %93, ptr noundef %94, i64 noundef 32)
  %96 = icmp slt i32 %95, 0
  br i1 %96, label %97, label %102

97:                                               ; preds = %92
  %98 = load ptr, ptr %9, align 8
  %99 = getelementptr inbounds nuw %struct.JsonManifestParseContext, ptr %98, i32 0, i32 5
  %100 = load ptr, ptr %99, align 8
  %101 = load ptr, ptr %9, align 8
  call void (ptr, ptr, ...) %100(ptr noundef %101, ptr noundef @.str.48) #6
  unreachable

102:                                              ; preds = %92
  %103 = load ptr, ptr %5, align 8
  %104 = getelementptr inbounds nuw %struct.JsonManifestParseState, ptr %103, i32 0, i32 16
  %105 = load ptr, ptr %104, align 8
  %106 = icmp eq ptr %105, null
  br i1 %106, label %107, label %114

107:                                              ; preds = %102
  %108 = load ptr, ptr %9, align 8
  %109 = getelementptr inbounds nuw %struct.JsonManifestParseContext, ptr %108, i32 0, i32 5
  %110 = load ptr, ptr %109, align 8
  %111 = load ptr, ptr %5, align 8
  %112 = getelementptr inbounds nuw %struct.JsonManifestParseState, ptr %111, i32 0, i32 0
  %113 = load ptr, ptr %112, align 8
  call void (ptr, ptr, ...) %110(ptr noundef %113, ptr noundef @.str.49) #6
  unreachable

114:                                              ; preds = %102
  %115 = load ptr, ptr %5, align 8
  %116 = getelementptr inbounds nuw %struct.JsonManifestParseState, ptr %115, i32 0, i32 16
  %117 = load ptr, ptr %116, align 8
  %118 = call i64 @strlen(ptr noundef %117) #7
  %119 = icmp ne i64 %118, 64
  br i1 %119, label %126, label %120

120:                                              ; preds = %114
  %121 = getelementptr inbounds [32 x i8], ptr %16, i64 0, i64 0
  %122 = load ptr, ptr %5, align 8
  %123 = getelementptr inbounds nuw %struct.JsonManifestParseState, ptr %122, i32 0, i32 16
  %124 = load ptr, ptr %123, align 8
  %125 = call zeroext i1 @hexdecode_string(ptr noundef %121, ptr noundef %124, i32 noundef 32)
  br i1 %125, label %134, label %126

126:                                              ; preds = %120, %114
  %127 = load ptr, ptr %9, align 8
  %128 = getelementptr inbounds nuw %struct.JsonManifestParseContext, ptr %127, i32 0, i32 5
  %129 = load ptr, ptr %128, align 8
  %130 = load ptr, ptr %9, align 8
  %131 = load ptr, ptr %5, align 8
  %132 = getelementptr inbounds nuw %struct.JsonManifestParseState, ptr %131, i32 0, i32 16
  %133 = load ptr, ptr %132, align 8
  call void (ptr, ptr, ...) %129(ptr noundef %130, ptr noundef @.str.50, ptr noundef %133) #6
  unreachable

134:                                              ; preds = %120
  %135 = getelementptr inbounds [32 x i8], ptr %15, i64 0, i64 0
  %136 = getelementptr inbounds [32 x i8], ptr %16, i64 0, i64 0
  %137 = call i32 @memcmp(ptr noundef %135, ptr noundef %136, i64 noundef 32) #7
  %138 = icmp ne i32 %137, 0
  br i1 %138, label %139, label %144

139:                                              ; preds = %134
  %140 = load ptr, ptr %9, align 8
  %141 = getelementptr inbounds nuw %struct.JsonManifestParseContext, ptr %140, i32 0, i32 5
  %142 = load ptr, ptr %141, align 8
  %143 = load ptr, ptr %9, align 8
  call void (ptr, ptr, ...) %142(ptr noundef %143, ptr noundef @.str.51) #6
  unreachable

144:                                              ; preds = %134
  %145 = load ptr, ptr %14, align 8
  call void @pg_cryptohash_free(ptr noundef %145)
  call void @llvm.lifetime.end.p0(i64 32, ptr %16) #5
  call void @llvm.lifetime.end.p0(i64 32, ptr %15) #5
  call void @llvm.lifetime.end.p0(i64 8, ptr %14) #5
  call void @llvm.lifetime.end.p0(i64 8, ptr %13) #5
  call void @llvm.lifetime.end.p0(i64 8, ptr %12) #5
  call void @llvm.lifetime.end.p0(i64 8, ptr %11) #5
  call void @llvm.lifetime.end.p0(i64 8, ptr %10) #5
  call void @llvm.lifetime.end.p0(i64 8, ptr %9) #5
  ret void
}