; Function Attrs: nounwind uwtable
define internal fastcc void @verify_manifest_checksum(ptr noundef readonly captures(none) %0, ptr noundef %1, i64 noundef %2, ptr noundef %3) unnamed_addr #0 {
  %5 = alloca [32 x i8], align 16
  %6 = alloca [32 x i8], align 16
  %7 = load ptr, ptr %0, align 8
  call void @llvm.lifetime.start.p0(i64 32, ptr nonnull %5) #8
  call void @llvm.lifetime.start.p0(i64 32, ptr nonnull %6) #8
  %.not60 = icmp eq i64 %2, 0
  br i1 %.not60, label %._crit_edge.thread, label %.lr.ph

.lr.ph:                                           ; preds = %4, %.lr.ph
  %.04057 = phi i64 [ %.1, %.lr.ph ], [ 0, %4 ]
  %.04156 = phi i64 [ %.142, %.lr.ph ], [ 0, %4 ]
  %.04355 = phi i64 [ %.144, %.lr.ph ], [ 0, %4 ]
  %.04554 = phi i64 [ %12, %.lr.ph ], [ 0, %4 ]
  %8 = getelementptr inbounds nuw i8, ptr %1, i64 %.04554
  %9 = load i8, ptr %8, align 1
  %10 = icmp eq i8 %9, 10
  %11 = zext i1 %10 to i64
  %.144 = add i64 %.04355, %11
  %.142 = select i1 %10, i64 %.04554, i64 %.04156
  %.1 = select i1 %10, i64 %.04156, i64 %.04057
  %12 = add nuw i64 %.04554, 1
  %exitcond.not = icmp eq i64 %12, %2
  br i1 %exitcond.not, label %._crit_edge, label %.lr.ph, !llvm.loop !8

._crit_edge:                                      ; preds = %.lr.ph
  %13 = icmp ult i64 %.144, 2
  %14 = add i64 %.1, 1
  br i1 %13, label %._crit_edge.thread, label %17

._crit_edge.thread:                               ; preds = %4, %._crit_edge
  %15 = getelementptr inbounds nuw i8, ptr %7, i64 40
  %16 = load ptr, ptr %15, align 8
  tail call void (ptr, ptr, ...) %16(ptr noundef %7, ptr noundef nonnull @.str.52, ptr noundef nonnull @.str.46) #9
  unreachable

17:                                               ; preds = %._crit_edge
  %18 = add i64 %2, -1
  %.not = icmp eq i64 %.142, %18
  br i1 %.not, label %22, label %19

19:                                               ; preds = %17
  %20 = getelementptr inbounds nuw i8, ptr %7, i64 40
  %21 = load ptr, ptr %20, align 8
  tail call void (ptr, ptr, ...) %21(ptr noundef %7, ptr noundef nonnull @.str.52, ptr noundef nonnull @.str.47) #9
  unreachable

22:                                               ; preds = %17
  %23 = icmp eq ptr %3, null
  br i1 %23, label %24, label %36

24:                                               ; preds = %22
  %25 = tail call ptr @pg_cryptohash_create(i32 noundef 3) #8
  %26 = icmp eq ptr %25, null
  br i1 %26, label %27, label %30

27:                                               ; preds = %24
  %28 = getelementptr inbounds nuw i8, ptr %7, i64 40
  %29 = load ptr, ptr %28, align 8
  tail call void (ptr, ptr, ...) %29(ptr noundef %7, ptr noundef nonnull @.str) #9
  unreachable

30:                                               ; preds = %24
  %31 = tail call i32 @pg_cryptohash_init(ptr noundef nonnull %25) #8
  %32 = icmp slt i32 %31, 0
  br i1 %32, label %33, label %36

33:                                               ; preds = %30
  %34 = getelementptr inbounds nuw i8, ptr %7, i64 40
  %35 = load ptr, ptr %34, align 8
  tail call void (ptr, ptr, ...) %35(ptr noundef %7, ptr noundef nonnull @.str.1) #9
  unreachable

36:                                               ; preds = %22, %30
  %.0 = phi ptr [ %25, %30 ], [ %3, %22 ]
  %37 = tail call i32 @pg_cryptohash_update(ptr noundef nonnull %.0, ptr noundef nonnull %1, i64 noundef %14) #8
  %38 = icmp slt i32 %37, 0
  br i1 %38, label %39, label %42

39:                                               ; preds = %36
  %40 = getelementptr inbounds nuw i8, ptr %7, i64 40
  %41 = load ptr, ptr %40, align 8
  tail call void (ptr, ptr, ...) %41(ptr noundef %7, ptr noundef nonnull @.str.3) #9
  unreachable

42:                                               ; preds = %36
  %43 = call i32 @pg_cryptohash_final(ptr noundef nonnull %.0, ptr noundef nonnull %5, i64 noundef 32) #8
  %44 = icmp slt i32 %43, 0
  br i1 %44, label %45, label %48

45:                                               ; preds = %42
  %46 = getelementptr inbounds nuw i8, ptr %7, i64 40
  %47 = load ptr, ptr %46, align 8
  call void (ptr, ptr, ...) %47(ptr noundef %7, ptr noundef nonnull @.str.48) #9
  unreachable

48:                                               ; preds = %42
  %49 = getelementptr inbounds nuw i8, ptr %0, i64 120
  %50 = load ptr, ptr %49, align 8
  %51 = icmp eq ptr %50, null
  br i1 %51, label %52, label %56

52:                                               ; preds = %48
  %53 = getelementptr inbounds nuw i8, ptr %7, i64 40
  %54 = load ptr, ptr %53, align 8
  %55 = load ptr, ptr %0, align 8
  call void (ptr, ptr, ...) %54(ptr noundef %55, ptr noundef nonnull @.str.49) #9
  unreachable

56:                                               ; preds = %48
  %57 = call i64 @strlen(ptr noundef nonnull dereferenceable(1) %50) #10
  %.not50 = icmp eq i64 %57, 64
  br i1 %.not50, label %.lr.ph.i, label %hexdecode_string.exit

.lr.ph.i:                                         ; preds = %56, %88
  %indvars.iv.i = phi i64 [ %indvars.iv.next.i, %88 ], [ 0, %56 ]
  %58 = shl nuw i64 %indvars.iv.i, 1
  %59 = getelementptr inbounds i8, ptr %50, i64 %58
  %60 = load i8, ptr %59, align 1
  %61 = sext i8 %60 to i32
  %62 = add i8 %60, -48
  %or.cond.i.i = icmp ult i8 %62, 10
  br i1 %or.cond.i.i, label %63, label %65

63:                                               ; preds = %.lr.ph.i
  %64 = add nsw i32 %61, -48
  br label %hexdecode_char.exit.i

65:                                               ; preds = %.lr.ph.i
  %66 = add i8 %60, -97
  %or.cond5.i.i = icmp ult i8 %66, 6
  br i1 %or.cond5.i.i, label %67, label %69

67:                                               ; preds = %65
  %68 = add nsw i32 %61, -87
  br label %hexdecode_char.exit.i

69:                                               ; preds = %65
  %70 = add i8 %60, -65
  %or.cond8.i.i = icmp ult i8 %70, 6
  %71 = add nsw i32 %61, -55
  %spec.select.i.i = select i1 %or.cond8.i.i, i32 %71, i32 -1
  br label %hexdecode_char.exit.i

hexdecode_char.exit.i:                            ; preds = %69, %67, %63
  %.0.i.i = phi i32 [ %64, %63 ], [ %68, %67 ], [ %spec.select.i.i, %69 ]
  %72 = or disjoint i64 %58, 1
  %73 = getelementptr inbounds i8, ptr %50, i64 %72
  %74 = load i8, ptr %73, align 1
  %75 = sext i8 %74 to i32
  %76 = add i8 %74, -48
  %or.cond.i20.i = icmp ult i8 %76, 10
  br i1 %or.cond.i20.i, label %77, label %79

77:                                               ; preds = %hexdecode_char.exit.i
  %78 = add nsw i32 %75, -48
  br label %hexdecode_char.exit25.i

79:                                               ; preds = %hexdecode_char.exit.i
  %80 = add i8 %74, -97
  %or.cond5.i21.i = icmp ult i8 %80, 6
  br i1 %or.cond5.i21.i, label %81, label %83

81:                                               ; preds = %79
  %82 = add nsw i32 %75, -87
  br label %hexdecode_char.exit25.i

83:                                               ; preds = %79
  %84 = add i8 %74, -65
  %or.cond8.i22.i = icmp ult i8 %84, 6
  %85 = add nsw i32 %75, -55
  %spec.select.i23.i = select i1 %or.cond8.i22.i, i32 %85, i32 -1
  br label %hexdecode_char.exit25.i

hexdecode_char.exit25.i:                          ; preds = %83, %81, %77
  %.0.i24.i = phi i32 [ %78, %77 ], [ %82, %81 ], [ %spec.select.i23.i, %83 ]
  %86 = icmp sgt i32 %.0.i.i, -1
  %87 = icmp sgt i32 %.0.i24.i, -1
  %or.cond.not.i = select i1 %86, i1 %87, i1 false
  br i1 %or.cond.not.i, label %88, label %hexdecode_string.exit

88:                                               ; preds = %hexdecode_char.exit25.i
  %89 = shl nuw nsw i32 %.0.i.i, 4
  %90 = add nuw nsw i32 %.0.i24.i, %89
  %91 = trunc i32 %90 to i8
  %92 = getelementptr inbounds nuw i8, ptr %6, i64 %indvars.iv.i
  store i8 %91, ptr %92, align 1
  %indvars.iv.next.i = add nuw nsw i64 %indvars.iv.i, 1
  %exitcond.not.i = icmp eq i64 %indvars.iv.next.i, 32
  br i1 %exitcond.not.i, label %95, label %.lr.ph.i, !llvm.loop !4

hexdecode_string.exit:                            ; preds = %hexdecode_char.exit25.i, %56
  %93 = getelementptr inbounds nuw i8, ptr %7, i64 40
  %94 = load ptr, ptr %93, align 8
  call void (ptr, ptr, ...) %94(ptr noundef %7, ptr noundef nonnull @.str.50, ptr noundef nonnull %50) #9
  unreachable

95:                                               ; preds = %88
  %bcmp = call i32 @bcmp(ptr noundef nonnull dereferenceable(32) %5, ptr noundef nonnull dereferenceable(32) %6, i64 32)
  %.not51 = icmp eq i32 %bcmp, 0
  br i1 %.not51, label %99, label %96

96:                                               ; preds = %95
  %97 = getelementptr inbounds nuw i8, ptr %7, i64 40
  %98 = load ptr, ptr %97, align 8
  call void (ptr, ptr, ...) %98(ptr noundef %7, ptr noundef nonnull @.str.51) #9
  unreachable

99:                                               ; preds = %95
  call void @pg_cryptohash_free(ptr noundef nonnull %.0) #8
  call void @llvm.lifetime.end.p0(i64 32, ptr nonnull %6) #8
  call void @llvm.lifetime.end.p0(i64 32, ptr nonnull %5) #8
  ret void
}